(dp1
(VTaobaoMM
p2
S'pending'
p3
tp4
ccopy_reg
_reconstructor
p5
(cpyspider.libs.counter
TotalCounter
p6
c__builtin__
object
p7
NtRp8
(dp9
S'cnt'
p10
I459
sbs(VTaobaoMM
p11
S'success'
p12
tp13
g5
(g6
g7
NtRp14
(dp15
g10
I49
sbs.